target datalayout = "e-m:e-p270:32:32-p271:32:32-p272:64:64-i64:64-i128:128-f80:128-n8:16:32:64-S128"
target triple = "x86_64-pc-linux-gnu"

%struct.AVChannelLayout = type { i32, i32, %union.anon.1, ptr }
%union.anon.1 = type { i64 }
%struct.AVRational = type { i32, i32 }
%struct.AVFrame = type { [8 x ptr], [8 x i32], ptr, i32, i32, i32, i32, i32, %struct.AVRational, i64, i64, %struct.AVRational, i32, ptr, i32, i32, [8 x ptr], ptr, i32, ptr, i32, i32, i32, i32, i32, i32, i32, i64, ptr, i32, ptr, ptr, i64, i64, i64, i64, ptr, %struct.AVChannelLayout, i64 }
%struct.ThreadData_blend_frame = type { ptr, ptr, i16 }

; Function Attrs: nounwind uwtable
define internal i32 @blend_frame_partial(ptr noundef %0, ptr noundef %1, i32 noundef %2, i32 noundef %3) #1 {
  %5 = alloca ptr, align 8
  %6 = alloca ptr, align 8
  %7 = alloca i32, align 4
  %8 = alloca i32, align 4
  %9 = alloca i32, align 4
  %10 = alloca i32, align 4
  %11 = alloca ptr, align 8
  %12 = alloca ptr, align 8
  %13 = alloca ptr, align 8
  %14 = alloca i16, align 2
  %15 = alloca i16, align 2
  %16 = alloca i32, align 4
  %17 = alloca i32, align 4
  %18 = alloca i32, align 4
  store ptr %0, ptr %5, align 8, !tbaa !4
  store ptr %1, ptr %6, align 8, !tbaa !77
  store i32 %2, ptr %7, align 4, !tbaa !28
  store i32 %3, ptr %8, align 4, !tbaa !28
  call void @llvm.lifetime.start.p0(i64 4, ptr %9) #8
  call void @llvm.lifetime.start.p0(i64 4, ptr %10) #8
  call void @llvm.lifetime.start.p0(i64 8, ptr %11) #8
  call void @llvm.lifetime.start.p0(i64 8, ptr %12) #8
  call void @llvm.lifetime.start.p0(i64 8, ptr %13) #8
  %19 = load ptr, ptr %6, align 8, !tbaa !77
  store ptr %19, ptr %13, align 8, !tbaa !86
  call void @llvm.lifetime.start.p0(i64 2, ptr %14) #8
  %20 = load ptr, ptr %13, align 8, !tbaa !86
  %21 = getelementptr inbounds nuw %struct.ThreadData_blend_frame, ptr %20, i32 0, i32 2
  %22 = load i16, ptr %21, align 8, !tbaa !75
  store i16 %22, ptr %14, align 2, !tbaa !88
  call void @llvm.lifetime.start.p0(i64 2, ptr %15) #8
  %23 = load i16, ptr %14, align 2, !tbaa !88
  %24 = zext i16 %23 to i32
  %25 = sub nsw i32 256, %24
  %26 = trunc i32 %25 to i16
  store i16 %26, ptr %15, align 2, !tbaa !88
  call void @llvm.lifetime.start.p0(i64 4, ptr %16) #8
  %27 = load ptr, ptr %13, align 8, !tbaa !86
  %28 = getelementptr inbounds nuw %struct.ThreadData_blend_frame, ptr %27, i32 0, i32 0
  %29 = load ptr, ptr %28, align 8, !tbaa !71
  %30 = getelementptr inbounds nuw %struct.AVFrame, ptr %29, i32 0, i32 4
  %31 = load i32, ptr %30, align 4, !tbaa !58
  %32 = load i32, ptr %7, align 4, !tbaa !28
  %33 = mul nsw i32 %31, %32
  %34 = load i32, ptr %8, align 4, !tbaa !28
  %35 = sdiv i32 %33, %34
  store i32 %35, ptr %16, align 4, !tbaa !28
  call void @llvm.lifetime.start.p0(i64 4, ptr %17) #8
  %36 = load ptr, ptr %13, align 8, !tbaa !86
  %37 = getelementptr inbounds nuw %struct.ThreadData_blend_frame, ptr %36, i32 0, i32 0
  %38 = load ptr, ptr %37, align 8, !tbaa !71
  %39 = getelementptr inbounds nuw %struct.AVFrame, ptr %38, i32 0, i32 4
  %40 = load i32, ptr %39, align 4, !tbaa !58
  %41 = load i32, ptr %7, align 4, !tbaa !28
  %42 = add nsw i32 %41, 1
  %43 = mul nsw i32 %40, %42
  %44 = load i32, ptr %8, align 4, !tbaa !28
  %45 = sdiv i32 %43, %44
  store i32 %45, ptr %17, align 4, !tbaa !28
  call void @llvm.lifetime.start.p0(i64 4, ptr %18) #8
  %46 = load ptr, ptr %13, align 8, !tbaa !86
  %47 = getelementptr inbounds nuw %struct.ThreadData_blend_frame, ptr %46, i32 0, i32 0
  %48 = load ptr, ptr %47, align 8, !tbaa !71
  %49 = getelementptr inbounds nuw %struct.AVFrame, ptr %48, i32 0, i32 1
  %50 = getelementptr inbounds [8 x i32], ptr %49, i64 0, i64 0
  %51 = load i32, ptr %50, align 8, !tbaa !28
  store i32 %51, ptr %18, align 4, !tbaa !28
  %52 = load i32, ptr %16, align 4, !tbaa !28
  store i32 %52, ptr %10, align 4, !tbaa !28
  br label %53

53:                                               ; preds = %119, %4
  %54 = load i32, ptr %10, align 4, !tbaa !28
  %55 = load i32, ptr %17, align 4, !tbaa !28
  %56 = icmp slt i32 %54, %55
  br i1 %56, label %57, label %122

57:                                               ; preds = %53
  %58 = load ptr, ptr %13, align 8, !tbaa !86
  %59 = getelementptr inbounds nuw %struct.ThreadData_blend_frame, ptr %58, i32 0, i32 0
  %60 = load ptr, ptr %59, align 8, !tbaa !71
  %61 = getelementptr inbounds nuw %struct.AVFrame, ptr %60, i32 0, i32 0
  %62 = getelementptr inbounds [8 x ptr], ptr %61, i64 0, i64 0
  %63 = load ptr, ptr %62, align 8, !tbaa !80
  %64 = load i32, ptr %10, align 4, !tbaa !28
  %65 = load ptr, ptr %13, align 8, !tbaa !86
  %66 = getelementptr inbounds nuw %struct.ThreadData_blend_frame, ptr %65, i32 0, i32 0
  %67 = load ptr, ptr %66, align 8, !tbaa !71
  %68 = getelementptr inbounds nuw %struct.AVFrame, ptr %67, i32 0, i32 1
  %69 = getelementptr inbounds [8 x i32], ptr %68, i64 0, i64 0
  %70 = load i32, ptr %69, align 8, !tbaa !28
  %71 = mul nsw i32 %64, %70
  %72 = sext i32 %71 to i64
  %73 = getelementptr inbounds i8, ptr %63, i64 %72
  store ptr %73, ptr %11, align 8, !tbaa !80
  %74 = load ptr, ptr %13, align 8, !tbaa !86
  %75 = getelementptr inbounds nuw %struct.ThreadData_blend_frame, ptr %74, i32 0, i32 1
  %76 = load ptr, ptr %75, align 8, !tbaa !74
  %77 = getelementptr inbounds nuw %struct.AVFrame, ptr %76, i32 0, i32 0
  %78 = getelementptr inbounds [8 x ptr], ptr %77, i64 0, i64 0
  %79 = load ptr, ptr %78, align 8, !tbaa !80
  %80 = load i32, ptr %10, align 4, !tbaa !28
  %81 = load ptr, ptr %13, align 8, !tbaa !86
  %82 = getelementptr inbounds nuw %struct.ThreadData_blend_frame, ptr %81, i32 0, i32 1
  %83 = load ptr, ptr %82, align 8, !tbaa !74
  %84 = getelementptr inbounds nuw %struct.AVFrame, ptr %83, i32 0, i32 1
  %85 = getelementptr inbounds [8 x i32], ptr %84, i64 0, i64 0
  %86 = load i32, ptr %85, align 8, !tbaa !28
  %87 = mul nsw i32 %80, %86
  %88 = sext i32 %87 to i64
  %89 = getelementptr inbounds i8, ptr %79, i64 %88
  store ptr %89, ptr %12, align 8, !tbaa !80
  store i32 0, ptr %9, align 4, !tbaa !28
  br label %90

90:                                               ; preds = %115, %57
  %91 = load i32, ptr %9, align 4, !tbaa !28
  %92 = load i32, ptr %18, align 4, !tbaa !28
  %93 = icmp slt i32 %91, %92
  br i1 %93, label %94, label %118

94:                                               ; preds = %90
  %95 = load ptr, ptr %11, align 8, !tbaa !80
  %96 = load i8, ptr %95, align 1, !tbaa !51
  %97 = zext i8 %96 to i32
  %98 = load i16, ptr %15, align 2, !tbaa !88
  %99 = zext i16 %98 to i32
  %100 = mul nsw i32 %97, %99
  %101 = load ptr, ptr %12, align 8, !tbaa !80
  %102 = load i8, ptr %101, align 1, !tbaa !51
  %103 = zext i8 %102 to i32
  %104 = load i16, ptr %14, align 2, !tbaa !88
  %105 = zext i16 %104 to i32
  %106 = mul nsw i32 %103, %105
  %107 = add nsw i32 %100, %106
  %108 = ashr i32 %107, 8
  %109 = trunc i32 %108 to i8
  %110 = load ptr, ptr %11, align 8, !tbaa !80
  store i8 %109, ptr %110, align 1, !tbaa !51
  %111 = load ptr, ptr %11, align 8, !tbaa !80
  %112 = getelementptr inbounds nuw i8, ptr %111, i32 1
  store ptr %112, ptr %11, align 8, !tbaa !80
  %113 = load ptr, ptr %12, align 8, !tbaa !80
  %114 = getelementptr inbounds nuw i8, ptr %113, i32 1
  store ptr %114, ptr %12, align 8, !tbaa !80
  br label %115

115:                                              ; preds = %94
  %116 = load i32, ptr %9, align 4, !tbaa !28
  %117 = add nsw i32 %116, 1
  store i32 %117, ptr %9, align 4, !tbaa !28
  br label %90, !llvm.loop !89

118:                                              ; preds = %90
  br label %119

119:                                              ; preds = %118
  %120 = load i32, ptr %10, align 4, !tbaa !28
  %121 = add nsw i32 %120, 1
  store i32 %121, ptr %10, align 4, !tbaa !28
  br label %53, !llvm.loop !90

122:                                              ; preds = %53
  call void @llvm.lifetime.end.p0(i64 4, ptr %18) #8
  call void @llvm.lifetime.end.p0(i64 4, ptr %17) #8
  call void @llvm.lifetime.end.p0(i64 4, ptr %16) #8
  call void @llvm.lifetime.end.p0(i64 2, ptr %15) #8
  call void @llvm.lifetime.end.p0(i64 2, ptr %14) #8
  call void @llvm.lifetime.end.p0(i64 8, ptr %13) #8
  call void @llvm.lifetime.end.p0(i64 8, ptr %12) #8
  call void @llvm.lifetime.end.p0(i64 8, ptr %11) #8
  call void @llvm.lifetime.end.p0(i64 4, ptr %10) #8
  call void @llvm.lifetime.end.p0(i64 4, ptr %9) #8
  ret i32 0
}