; Function Attrs: nofree norecurse nosync nounwind memory(readwrite, inaccessiblemem: none) uwtable
define internal noundef i32 @blend_frame_partial(ptr readnone captures(none) %0, ptr noundef readonly captures(none) %1, i32 noundef %2, i32 noundef %3) #7 {
  %5 = getelementptr inbounds nuw i8, ptr %1, i64 16
  %6 = load i16, ptr %5, align 8, !tbaa !60
  %7 = sub i16 256, %6
  %8 = load ptr, ptr %1, align 8, !tbaa !56
  %9 = getelementptr inbounds nuw i8, ptr %8, i64 108
  %10 = load i32, ptr %9, align 4, !tbaa !68
  %11 = mul nsw i32 %10, %2
  %12 = sdiv i32 %11, %3
  %13 = add nsw i32 %2, 1
  %14 = mul nsw i32 %10, %13
  %15 = sdiv i32 %14, %3
  %16 = getelementptr inbounds nuw i8, ptr %8, i64 64
  %17 = load i32, ptr %16, align 8, !tbaa !39
  %18 = icmp slt i32 %12, %15
  br i1 %18, label %.lr.ph37, label %._crit_edge38

.lr.ph37:                                         ; preds = %4
  %19 = getelementptr inbounds nuw i8, ptr %1, i64 8
  %20 = icmp sgt i32 %17, 0
  br i1 %20, label %.lr.ph.us, label %._crit_edge38

.lr.ph.us:                                        ; preds = %.lr.ph37, %._crit_edge.us
  %.02935.us = phi i32 [ %48, %._crit_edge.us ], [ %12, %.lr.ph37 ]
  %21 = load ptr, ptr %1, align 8, !tbaa !56
  %22 = load ptr, ptr %21, align 8, !tbaa !70
  %23 = getelementptr inbounds nuw i8, ptr %21, i64 64
  %24 = load i32, ptr %23, align 8, !tbaa !39
  %25 = mul nsw i32 %24, %.02935.us
  %26 = sext i32 %25 to i64
  %27 = getelementptr inbounds i8, ptr %22, i64 %26
  %28 = load ptr, ptr %19, align 8, !tbaa !59
  %29 = load ptr, ptr %28, align 8, !tbaa !70
  %30 = getelementptr inbounds nuw i8, ptr %28, i64 64
  %31 = load i32, ptr %30, align 8, !tbaa !39
  %32 = mul nsw i32 %31, %.02935.us
  %33 = sext i32 %32 to i64
  %34 = getelementptr inbounds i8, ptr %29, i64 %33
  br label %35

35:                                               ; preds = %.lr.ph.us, %35
  %.034.us = phi i32 [ 0, %.lr.ph.us ], [ %47, %35 ]
  %.03033.us = phi ptr [ %27, %.lr.ph.us ], [ %45, %35 ]
  %.03132.us = phi ptr [ %34, %.lr.ph.us ], [ %46, %35 ]
  %36 = load i8, ptr %.03033.us, align 1, !tbaa !48
  %37 = zext i8 %36 to i16
  %38 = mul i16 %7, %37
  %39 = load i8, ptr %.03132.us, align 1, !tbaa !48
  %40 = zext i8 %39 to i16
  %41 = mul i16 %6, %40
  %42 = add i16 %41, %38
  %43 = lshr i16 %42, 8
  %44 = trunc nuw i16 %43 to i8
  store i8 %44, ptr %.03033.us, align 1, !tbaa !48
  %45 = getelementptr inbounds nuw i8, ptr %.03033.us, i64 1
  %46 = getelementptr inbounds nuw i8, ptr %.03132.us, i64 1
  %47 = add nuw nsw i32 %.034.us, 1
  %exitcond.not = icmp eq i32 %47, %17
  br i1 %exitcond.not, label %._crit_edge.us, label %35, !llvm.loop !75

._crit_edge.us:                                   ; preds = %35
  %48 = add nsw i32 %.02935.us, 1
  %exitcond40.not = icmp eq i32 %48, %15
  br i1 %exitcond40.not, label %._crit_edge38, label %.lr.ph.us, !llvm.loop !76

._crit_edge38:                                    ; preds = %._crit_edge.us, %.lr.ph37, %4
  ret i32 0
}